; Function Attrs: nounwind uwtable
define dso_local range(i32 0, 28) i32 @easysrc_add(ptr noundef captures(none) %0, ptr noundef %1) local_unnamed_addr #0 {
  %3 = load ptr, ptr %0, align 8, !tbaa !4
  %4 = tail call ptr @slist_wc_append(ptr noundef %3, ptr noundef %1) #5
  %.not = icmp eq ptr %4, null
  br i1 %.not, label %5, label %11

5:                                                ; preds = %2
  %6 = load ptr, ptr @easysrc_decl, align 8, !tbaa !4
  tail call void @slist_wc_free_all(ptr noundef %6) #5
  store ptr null, ptr @easysrc_decl, align 8, !tbaa !4
  %7 = load ptr, ptr @easysrc_data, align 8, !tbaa !4
  tail call void @slist_wc_free_all(ptr noundef %7) #5
  store ptr null, ptr @easysrc_data, align 8, !tbaa !4
  %8 = load ptr, ptr @easysrc_code, align 8, !tbaa !4
  tail call void @slist_wc_free_all(ptr noundef %8) #5
  store ptr null, ptr @easysrc_code, align 8, !tbaa !4
  %9 = load ptr, ptr @easysrc_toohard, align 8, !tbaa !4
  tail call void @slist_wc_free_all(ptr noundef %9) #5
  store ptr null, ptr @easysrc_toohard, align 8, !tbaa !4
  %10 = load ptr, ptr @easysrc_clean, align 8, !tbaa !4
  tail call void @slist_wc_free_all(ptr noundef %10) #5
  store ptr null, ptr @easysrc_clean, align 8, !tbaa !4
  br label %12

11:                                               ; preds = %2
  store ptr %4, ptr %0, align 8, !tbaa !4
  br label %12

12:                                               ; preds = %11, %5
  %.0 = phi i32 [ 0, %11 ], [ 27, %5 ]
  ret i32 %.0
}